; Function Attrs: mustprogress uwtable
define hidden void @_ZN8facebook6hermes17HermesRuntimeImpl17prepareJavaScriptERKSt10shared_ptrIKNS_3jsi6BufferEENSt7__cxx1112basic_stringIcSt11char_traitsIcESaIcEEE(ptr noalias nocapture writeonly sret(%"class.std::shared_ptr.296") align 8 %agg.result, ptr nocapture nonnull readnone align 8 %this, ptr nocapture noundef nonnull readonly align 8 dereferenceable(16) %jsiBuffer, ptr noundef nonnull %sourceURL) unnamed_addr #0 align 2 personality ptr @__gxx_personality_v0 {
entry:
  %ref.tmp = alloca %"class.std::shared_ptr.299", align 8
  %agg.tmp = alloca %"class.std::__cxx11::basic_string", align 8
  call void @llvm.memset.p0.i64(ptr noundef nonnull align 8 dereferenceable(16) %ref.tmp, i8 0, i64 16, i1 false)
  invoke void @_ZNSt7__cxx1112basic_stringIcSt11char_traitsIcESaIcEEC1ERKS4_(ptr noundef nonnull align 8 dereferenceable(32) %agg.tmp, ptr noundef nonnull align 8 dereferenceable(32) %sourceURL)
          to label %invoke.cont unwind label %lpad

invoke.cont:                                      ; preds = %entry
  invoke void @_ZN8facebook6hermes17HermesRuntimeImpl30prepareJavaScriptWithSourceMapERKSt10shared_ptrIKNS_3jsi6BufferEES8_NSt7__cxx1112basic_stringIcSt11char_traitsIcESaIcEEE(ptr sret(%"class.std::shared_ptr.296") align 8 %agg.result, ptr nonnull align 8 poison, ptr noundef nonnull align 8 dereferenceable(16) %jsiBuffer, ptr noundef nonnull align 8 dereferenceable(16) %ref.tmp, ptr noundef nonnull %agg.tmp)
          to label %_ZNSt10shared_ptrIKN8facebook3jsi6BufferEED2Ev.exit unwind label %lpad2

_ZNSt10shared_ptrIKN8facebook3jsi6BufferEED2Ev.exit: ; preds = %invoke.cont
  call void @_ZNSt7__cxx1112basic_stringIcSt11char_traitsIcESaIcEED1Ev(ptr noundef nonnull align 8 dereferenceable(32) %agg.tmp) #37
  ret void

lpad:                                             ; preds = %entry
  %0 = landingpad { ptr, i32 }
          cleanup
  br label %ehcleanup

lpad2:                                            ; preds = %invoke.cont
  %1 = landingpad { ptr, i32 }
          cleanup
  call void @_ZNSt7__cxx1112basic_stringIcSt11char_traitsIcESaIcEED1Ev(ptr noundef nonnull align 8 dereferenceable(32) %agg.tmp) #37
  br label %ehcleanup

ehcleanup:                                        ; preds = %lpad2, %lpad
  %.pn = phi { ptr, i32 } [ %1, %lpad2 ], [ %0, %lpad ]
  call void @_ZNSt10shared_ptrIKN8facebook3jsi6BufferEED2Ev(ptr noundef nonnull align 8 dereferenceable(16) %ref.tmp) #37
  resume { ptr, i32 } %.pn
}